target datalayout = "e-m:e-p270:32:32-p271:32:32-p272:64:64-i64:64-i128:128-f80:128-n8:16:32:64-S128"
target triple = "x86_64-unknown-linux-gnu"

%struct.FLAC__BitWriter = type { ptr, i64, i32, i32, i32 }

; Function Attrs: nounwind sspstrong uwtable
define hidden i32 @FLAC__bitwriter_init(ptr noundef %bw) #0 {
entry:
  %retval = alloca i32, align 4
  %bw.addr = alloca ptr, align 8
  store ptr %bw, ptr %bw.addr, align 8
  %0 = load ptr, ptr %bw.addr, align 8
  %bits = getelementptr inbounds %struct.FLAC__BitWriter, ptr %0, i32 0, i32 4
  store i32 0, ptr %bits, align 8
  %1 = load ptr, ptr %bw.addr, align 8
  %words = getelementptr inbounds %struct.FLAC__BitWriter, ptr %1, i32 0, i32 3
  store i32 0, ptr %words, align 4
  %2 = load ptr, ptr %bw.addr, align 8
  %capacity = getelementptr inbounds %struct.FLAC__BitWriter, ptr %2, i32 0, i32 2
  store i32 4096, ptr %capacity, align 8
  %3 = load ptr, ptr %bw.addr, align 8
  %capacity1 = getelementptr inbounds %struct.FLAC__BitWriter, ptr %3, i32 0, i32 2
  %4 = load i32, ptr %capacity1, align 8
  %conv = zext i32 %4 to i64
  %mul = mul i64 8, %conv
  %call = call noalias ptr @malloc(i64 noundef %mul) #9
  %5 = load ptr, ptr %bw.addr, align 8
  %buffer = getelementptr inbounds %struct.FLAC__BitWriter, ptr %5, i32 0, i32 0
  store ptr %call, ptr %buffer, align 8
  %6 = load ptr, ptr %bw.addr, align 8
  %buffer2 = getelementptr inbounds %struct.FLAC__BitWriter, ptr %6, i32 0, i32 0
  %7 = load ptr, ptr %buffer2, align 8
  %cmp = icmp eq ptr %7, null
  br i1 %cmp, label %if.then, label %if.end

if.then:                                          ; preds = %entry
  store i32 0, ptr %retval, align 4
  br label %return

if.end:                                           ; preds = %entry
  store i32 1, ptr %retval, align 4
  br label %return

return:                                           ; preds = %if.end, %if.then
  %8 = load i32, ptr %retval, align 4
  ret i32 %8
}