; Function Attrs: mustprogress nofree nounwind sspstrong willreturn memory(argmem: write, inaccessiblemem: readwrite) uwtable
define hidden range(i32 0, 2) i32 @FLAC__bitwriter_init(ptr noundef writeonly captures(none) initializes((0, 8), (16, 28)) %bw) local_unnamed_addr #4 {
entry:
  %bits = getelementptr inbounds nuw i8, ptr %bw, i64 24
  store i32 0, ptr %bits, align 8
  %words = getelementptr inbounds nuw i8, ptr %bw, i64 20
  store i32 0, ptr %words, align 4
  %capacity = getelementptr inbounds nuw i8, ptr %bw, i64 16
  store i32 4096, ptr %capacity, align 8
  %call = tail call noalias dereferenceable_or_null(32768) ptr @malloc(i64 noundef 32768) #16
  store ptr %call, ptr %bw, align 8
  %cmp = icmp ne ptr %call, null
  %. = zext i1 %cmp to i32
  ret i32 %.
}